target datalayout = "e-m:e-p270:32:32-p271:32:32-p272:64:64-i64:64-i128:128-f80:128-n8:16:32:64-S128"
target triple = "x86_64-pc-linux-gnu"

%struct.Vec_Int_t_ = type { i32, i32, ptr }
%struct.Vec_Ptr_t_ = type { i32, i32, ptr }
%struct.Gia_Man_t_ = type { ptr, ptr, i32, i32, i32, i32, ptr, ptr, i32, i32, i32, ptr, ptr, %struct.Vec_Int_t_, %struct.Vec_Int_t_, i32, i32, i32, %struct.Vec_Int_t_, ptr, ptr, ptr, i32, i32, i32, i32, ptr, ptr, ptr, ptr, ptr, i32, i32, ptr, i32, ptr, ptr, ptr, ptr, ptr, ptr, ptr, ptr, ptr, ptr, ptr, ptr, ptr, ptr, ptr, ptr, ptr, ptr, %struct.Vec_Int_t_, %struct.Vec_Int_t_, ptr, ptr, ptr, ptr, ptr, ptr, ptr, ptr, ptr, ptr, ptr, ptr, ptr, ptr, ptr, ptr, ptr, ptr, ptr, ptr, ptr, i32, float, float, ptr, ptr, i32, ptr, ptr, ptr, ptr, ptr, ptr, ptr, ptr, ptr, ptr, ptr, ptr, ptr, ptr, ptr, i64, i64, ptr, ptr, i32, i32, i32, i32, i32, i32, i32, i32, i32, i32, i32, i32, ptr, ptr, ptr, ptr, ptr, ptr, ptr, ptr, i32, i32, i32, ptr, i32, i32, ptr, ptr, ptr, ptr, ptr, ptr, i32, i32, ptr, %struct.Vec_Int_t_, %struct.Vec_Int_t_, %struct.Vec_Int_t_, ptr, ptr, ptr, i32, i32, i32, i32, ptr, ptr, ptr, ptr, ptr }

@.str = private unnamed_addr constant [5 x i8] c"(%d)\00", align 1
@.str.1 = private unnamed_addr constant [6 x i8] c" %s  \00", align 1
@.str.2 = private unnamed_addr constant [7 x i8] c" n%d  \00", align 1
@.str.3 = private unnamed_addr constant [6 x i8] c"...  \00", align 1
@.str.4 = private unnamed_addr constant [10 x i8] c"Cost = %d\00", align 1
@.str.5 = private unnamed_addr constant [2 x i8] c"\0A\00", align 1

; Function Attrs: inlinehint nounwind uwtable
define internal ptr @Vec_PtrEntry(ptr noundef %0, i32 noundef %1) #2 {
  %3 = alloca ptr, align 8
  %4 = alloca i32, align 4
  store ptr %0, ptr %3, align 8, !tbaa !82
  store i32 %1, ptr %4, align 4, !tbaa !8
  %5 = load ptr, ptr %3, align 8, !tbaa !82
  %6 = getelementptr inbounds nuw %struct.Vec_Ptr_t_, ptr %5, i32 0, i32 2
  %7 = load ptr, ptr %6, align 8, !tbaa !86
  %8 = load i32, ptr %4, align 4, !tbaa !8
  %9 = sext i32 %8 to i64
  %10 = getelementptr inbounds ptr, ptr %7, i64 %9
  %11 = load ptr, ptr %10, align 8, !tbaa !94
  ret ptr %11
}

; Function Attrs: nounwind uwtable
define i32 @Supp_ArrayWeight(ptr noundef %0, ptr noundef %1) #0 {
  %3 = alloca i32, align 4
  %4 = alloca ptr, align 8
  %5 = alloca ptr, align 8
  %6 = alloca i32, align 4
  %7 = alloca i32, align 4
  %8 = alloca i32, align 4
  %9 = alloca i32, align 4
  store ptr %0, ptr %4, align 8, !tbaa !41
  store ptr %1, ptr %5, align 8, !tbaa !41
  call void @llvm.lifetime.start.p0(i64 4, ptr %6) #15
  call void @llvm.lifetime.start.p0(i64 4, ptr %7) #15
  call void @llvm.lifetime.start.p0(i64 4, ptr %8) #15
  store i32 0, ptr %8, align 4, !tbaa !8
  %10 = load ptr, ptr %5, align 8, !tbaa !41
  %11 = icmp ne ptr %10, null
  br i1 %11, label %15, label %12

12:                                               ; preds = %2
  %13 = load ptr, ptr %4, align 8, !tbaa !41
  %14 = call i32 @Vec_IntSize(ptr noundef %13)
  store i32 %14, ptr %3, align 4
  store i32 1, ptr %9, align 4
  br label %38

15:                                               ; preds = %2
  store i32 0, ptr %6, align 4, !tbaa !8
  br label %16

16:                                               ; preds = %33, %15
  %17 = load i32, ptr %6, align 4, !tbaa !8
  %18 = load ptr, ptr %4, align 8, !tbaa !41
  %19 = call i32 @Vec_IntSize(ptr noundef %18)
  %20 = icmp slt i32 %17, %19
  br i1 %20, label %21, label %25

21:                                               ; preds = %16
  %22 = load ptr, ptr %4, align 8, !tbaa !41
  %23 = load i32, ptr %6, align 4, !tbaa !8
  %24 = call i32 @Vec_IntEntry(ptr noundef %22, i32 noundef %23)
  store i32 %24, ptr %7, align 4, !tbaa !8
  br label %25

25:                                               ; preds = %21, %16
  %26 = phi i1 [ false, %16 ], [ true, %21 ]
  br i1 %26, label %27, label %36

27:                                               ; preds = %25
  %28 = load ptr, ptr %5, align 8, !tbaa !41
  %29 = load i32, ptr %7, align 4, !tbaa !8
  %30 = call i32 @Vec_IntEntry(ptr noundef %28, i32 noundef %29)
  %31 = load i32, ptr %8, align 4, !tbaa !8
  %32 = add nsw i32 %31, %30
  store i32 %32, ptr %8, align 4, !tbaa !8
  br label %33

33:                                               ; preds = %27
  %34 = load i32, ptr %6, align 4, !tbaa !8
  %35 = add nsw i32 %34, 1
  store i32 %35, ptr %6, align 4, !tbaa !8
  br label %16, !llvm.loop !106

36:                                               ; preds = %25
  %37 = load i32, ptr %8, align 4, !tbaa !8
  store i32 %37, ptr %3, align 4
  store i32 1, ptr %9, align 4
  br label %38

38:                                               ; preds = %36, %12
  call void @llvm.lifetime.end.p0(i64 4, ptr %8) #15
  call void @llvm.lifetime.end.p0(i64 4, ptr %7) #15
  call void @llvm.lifetime.end.p0(i64 4, ptr %6) #15
  %39 = load i32, ptr %3, align 4
  ret i32 %39
}

; Function Attrs: inlinehint nounwind uwtable
define internal ptr @Gia_ObjName(ptr noundef %0, i32 noundef %1) #2 {
  %3 = alloca ptr, align 8
  %4 = alloca i32, align 4
  store ptr %0, ptr %3, align 8, !tbaa !69
  store i32 %1, ptr %4, align 4, !tbaa !8
  %5 = load ptr, ptr %3, align 8, !tbaa !69
  %6 = getelementptr inbounds nuw %struct.Gia_Man_t_, ptr %5, i32 0, i32 84
  %7 = load ptr, ptr %6, align 8, !tbaa !125
  %8 = icmp ne ptr %7, null
  br i1 %8, label %9, label %15

9:                                                ; preds = %2
  %10 = load ptr, ptr %3, align 8, !tbaa !69
  %11 = getelementptr inbounds nuw %struct.Gia_Man_t_, ptr %10, i32 0, i32 84
  %12 = load ptr, ptr %11, align 8, !tbaa !125
  %13 = load i32, ptr %4, align 4, !tbaa !8
  %14 = call ptr @Vec_PtrEntry(ptr noundef %12, i32 noundef %13)
  br label %16

15:                                               ; preds = %2
  br label %16

16:                                               ; preds = %15, %9
  %17 = phi ptr [ %14, %9 ], [ null, %15 ]
  ret ptr %17
}

; Function Attrs: inlinehint nounwind uwtable
define internal i32 @Vec_IntEntry(ptr noundef %0, i32 noundef %1) #2 {
  %3 = alloca ptr, align 8
  %4 = alloca i32, align 4
  store ptr %0, ptr %3, align 8, !tbaa !41
  store i32 %1, ptr %4, align 4, !tbaa !8
  %5 = load ptr, ptr %3, align 8, !tbaa !41
  %6 = getelementptr inbounds nuw %struct.Vec_Int_t_, ptr %5, i32 0, i32 2
  %7 = load ptr, ptr %6, align 8, !tbaa !59
  %8 = load i32, ptr %4, align 4, !tbaa !8
  %9 = sext i32 %8 to i64
  %10 = getelementptr inbounds i32, ptr %7, i64 %9
  %11 = load i32, ptr %10, align 4, !tbaa !8
  ret i32 %11
}

; Function Attrs: inlinehint nounwind uwtable
define internal i32 @Vec_IntSize(ptr noundef %0) #2 {
  %2 = alloca ptr, align 8
  store ptr %0, ptr %2, align 8, !tbaa !41
  %3 = load ptr, ptr %2, align 8, !tbaa !41
  %4 = getelementptr inbounds nuw %struct.Vec_Int_t_, ptr %3, i32 0, i32 1
  %5 = load i32, ptr %4, align 4, !tbaa !57
  ret i32 %5
}

; Function Attrs: nounwind uwtable
define void @Supp_PrintNodes(ptr noundef %0, ptr noundef %1, i32 noundef %2, i32 noundef %3) #0 {
  %5 = alloca ptr, align 8
  %6 = alloca ptr, align 8
  %7 = alloca i32, align 4
  %8 = alloca i32, align 4
  %9 = alloca i32, align 4
  %10 = alloca i32, align 4
  store ptr %0, ptr %5, align 8, !tbaa !69
  store ptr %1, ptr %6, align 8, !tbaa !41
  store i32 %2, ptr %7, align 4, !tbaa !8
  store i32 %3, ptr %8, align 4, !tbaa !8
  call void @llvm.lifetime.start.p0(i64 4, ptr %9) #15
  call void @llvm.lifetime.start.p0(i64 4, ptr %10) #15
  %11 = load i32, ptr %7, align 4, !tbaa !8
  store i32 %11, ptr %9, align 4, !tbaa !8
  br label %12

12:                                               ; preds = %70, %4
  %13 = load i32, ptr %9, align 4, !tbaa !8
  %14 = load ptr, ptr %6, align 8, !tbaa !41
  %15 = call i32 @Vec_IntSize(ptr noundef %14)
  %16 = icmp slt i32 %13, %15
  br i1 %16, label %17, label %21

17:                                               ; preds = %12
  %18 = load ptr, ptr %6, align 8, !tbaa !41
  %19 = load i32, ptr %9, align 4, !tbaa !8
  %20 = call i32 @Vec_IntEntry(ptr noundef %18, i32 noundef %19)
  store i32 %20, ptr %10, align 4, !tbaa !8
  br label %21

21:                                               ; preds = %17, %12
  %22 = phi i1 [ false, %12 ], [ true, %17 ]
  br i1 %22, label %23, label %73

23:                                               ; preds = %21
  %24 = load i32, ptr %10, align 4, !tbaa !8
  %25 = icmp slt i32 %24, 0
  br i1 %25, label %26, label %27

26:                                               ; preds = %23
  br label %70

27:                                               ; preds = %23
  %28 = load i32, ptr %10, align 4, !tbaa !8
  %29 = call i32 (ptr, ...) @printf(ptr noundef @.str, i32 noundef %28)
  %30 = load ptr, ptr %5, align 8, !tbaa !69
  %31 = icmp ne ptr %30, null
  br i1 %31, label %32, label %51

32:                                               ; preds = %27
  %33 = load ptr, ptr %5, align 8, !tbaa !69
  %34 = getelementptr inbounds nuw %struct.Gia_Man_t_, ptr %33, i32 0, i32 75
  %35 = load ptr, ptr %34, align 8, !tbaa !111
  %36 = icmp ne ptr %35, null
  br i1 %36, label %37, label %51

37:                                               ; preds = %32
  %38 = load ptr, ptr %5, align 8, !tbaa !69
  %39 = getelementptr inbounds nuw %struct.Gia_Man_t_, ptr %38, i32 0, i32 75
  %40 = load ptr, ptr %39, align 8, !tbaa !111
  %41 = load i32, ptr %10, align 4, !tbaa !8
  %42 = call i32 @Vec_IntEntry(ptr noundef %40, i32 noundef %41)
  %43 = icmp sgt i32 %42, 0
  br i1 %43, label %44, label %51

44:                                               ; preds = %37
  %45 = load ptr, ptr %5, align 8, !tbaa !69
  %46 = getelementptr inbounds nuw %struct.Gia_Man_t_, ptr %45, i32 0, i32 75
  %47 = load ptr, ptr %46, align 8, !tbaa !111
  %48 = load i32, ptr %10, align 4, !tbaa !8
  %49 = call i32 @Vec_IntEntry(ptr noundef %47, i32 noundef %48)
  %50 = call i32 (ptr, ...) @printf(ptr noundef @.str, i32 noundef %49)
  br label %51

51:                                               ; preds = %44, %37, %32, %27
  %52 = load ptr, ptr %5, align 8, !tbaa !69
  %53 = icmp ne ptr %52, null
  br i1 %53, label %54, label %60

54:                                               ; preds = %51
  %55 = load ptr, ptr %5, align 8, !tbaa !69
  %56 = load i32, ptr %10, align 4, !tbaa !8
  %57 = call ptr @Gia_ObjName(ptr noundef %55, i32 noundef %56)
  %58 = getelementptr inbounds i8, ptr %57, i64 2
  %59 = call i32 (ptr, ...) @printf(ptr noundef @.str.1, ptr noundef %58)
  br label %63

60:                                               ; preds = %51
  %61 = load i32, ptr %10, align 4, !tbaa !8
  %62 = call i32 (ptr, ...) @printf(ptr noundef @.str.2, i32 noundef %61)
  br label %63

63:                                               ; preds = %60, %54
  %64 = load i32, ptr %9, align 4, !tbaa !8
  %65 = load i32, ptr %8, align 4, !tbaa !8
  %66 = icmp sge i32 %64, %65
  br i1 %66, label %67, label %69

67:                                               ; preds = %63
  %68 = call i32 (ptr, ...) @printf(ptr noundef @.str.3)
  br label %73

69:                                               ; preds = %63
  br label %70

70:                                               ; preds = %69, %26
  %71 = load i32, ptr %9, align 4, !tbaa !8
  %72 = add nsw i32 %71, 1
  store i32 %72, ptr %9, align 4, !tbaa !8
  br label %12, !llvm.loop !124

73:                                               ; preds = %67, %21
  %74 = load ptr, ptr %6, align 8, !tbaa !41
  %75 = load ptr, ptr %5, align 8, !tbaa !69
  %76 = icmp ne ptr %75, null
  br i1 %76, label %77, label %81

77:                                               ; preds = %73
  %78 = load ptr, ptr %5, align 8, !tbaa !69
  %79 = getelementptr inbounds nuw %struct.Gia_Man_t_, ptr %78, i32 0, i32 75
  %80 = load ptr, ptr %79, align 8, !tbaa !111
  br label %82

81:                                               ; preds = %73
  br label %82

82:                                               ; preds = %81, %77
  %83 = phi ptr [ %80, %77 ], [ null, %81 ]
  %84 = call i32 @Supp_ArrayWeight(ptr noundef %74, ptr noundef %83)
  %85 = call i32 (ptr, ...) @printf(ptr noundef @.str.4, i32 noundef %84)
  %86 = call i32 (ptr, ...) @printf(ptr noundef @.str.5)
  call void @llvm.lifetime.end.p0(i64 4, ptr %10) #15
  call void @llvm.lifetime.end.p0(i64 4, ptr %9) #15
  ret void
}