; Function Attrs: nofree nounwind uwtable
define void @Supp_PrintNodes(ptr noundef readonly %0, ptr noundef readonly captures(none) %1, i32 noundef %2, i32 noundef %3) local_unnamed_addr #12 {
  %5 = getelementptr i8, ptr %1, i64 4
  %.val39 = load i32, ptr %5, align 4, !tbaa !30
  %6 = icmp slt i32 %2, %.val39
  br i1 %6, label %.lr.ph, label %.critedge

.lr.ph:                                           ; preds = %4
  %7 = getelementptr i8, ptr %1, i64 8
  %.not = icmp eq ptr %0, null
  %8 = getelementptr inbounds nuw i8, ptr %0, i64 584
  %9 = getelementptr i8, ptr %0, i64 648
  %10 = sext i32 %2 to i64
  %11 = sext i32 %3 to i64
  br i1 %.not, label %.lr.ph.split.us, label %.lr.ph.split

.lr.ph.split.us:                                  ; preds = %.lr.ph, %17
  %.val.us49 = phi i32 [ %.val.us, %17 ], [ %.val39, %.lr.ph ]
  %indvars.iv44 = phi i64 [ %indvars.iv.next45, %17 ], [ %10, %.lr.ph ]
  %.val32.us = load ptr, ptr %7, align 8, !tbaa !34
  %12 = getelementptr inbounds i32, ptr %.val32.us, i64 %indvars.iv44
  %13 = load i32, ptr %12, align 4, !tbaa !35
  %14 = icmp slt i32 %13, 0
  br i1 %14, label %17, label %.critedge29.us

.critedge29.us:                                   ; preds = %.lr.ph.split.us
  %15 = tail call i32 (ptr, ...) @printf(ptr noundef nonnull dereferenceable(1) @.str, i32 noundef %13)
  %16 = tail call i32 (ptr, ...) @printf(ptr noundef nonnull dereferenceable(1) @.str.2, i32 noundef %13)
  %.not26.us = icmp slt i64 %indvars.iv44, %11
  br i1 %.not26.us, label %.critedge29.us._crit_edge, label %.split.us

.critedge29.us._crit_edge:                        ; preds = %.critedge29.us
  %.val.us.pre = load i32, ptr %5, align 4, !tbaa !30
  br label %17

17:                                               ; preds = %.critedge29.us._crit_edge, %.lr.ph.split.us
  %.val.us = phi i32 [ %.val.us.pre, %.critedge29.us._crit_edge ], [ %.val.us49, %.lr.ph.split.us ]
  %indvars.iv.next45 = add nsw i64 %indvars.iv44, 1
  %18 = sext i32 %.val.us to i64
  %19 = icmp slt i64 %indvars.iv.next45, %18
  br i1 %19, label %.lr.ph.split.us, label %.critedge, !llvm.loop !99

.lr.ph.split:                                     ; preds = %.lr.ph, %40
  %.val47 = phi i32 [ %.val, %40 ], [ %.val39, %.lr.ph ]
  %indvars.iv = phi i64 [ %indvars.iv.next, %40 ], [ %10, %.lr.ph ]
  %.val32 = load ptr, ptr %7, align 8, !tbaa !34
  %20 = getelementptr inbounds i32, ptr %.val32, i64 %indvars.iv
  %21 = load i32, ptr %20, align 4, !tbaa !35
  %22 = icmp slt i32 %21, 0
  br i1 %22, label %40, label %23

23:                                               ; preds = %.lr.ph.split
  %24 = tail call i32 (ptr, ...) @printf(ptr noundef nonnull dereferenceable(1) @.str, i32 noundef %21)
  %25 = load ptr, ptr %8, align 8, !tbaa !100
  %.not25 = icmp eq ptr %25, null
  br i1 %.not25, label %.Gia_ObjName.exit_crit_edge, label %26

.Gia_ObjName.exit_crit_edge:                      ; preds = %23
  %.pre = zext nneg i32 %21 to i64
  br label %Gia_ObjName.exit

26:                                               ; preds = %23
  %27 = getelementptr i8, ptr %25, i64 8
  %.val31 = load ptr, ptr %27, align 8, !tbaa !34
  %28 = zext nneg i32 %21 to i64
  %29 = getelementptr inbounds nuw i32, ptr %.val31, i64 %28
  %30 = load i32, ptr %29, align 4, !tbaa !35
  %31 = icmp sgt i32 %30, 0
  br i1 %31, label %32, label %Gia_ObjName.exit

32:                                               ; preds = %26
  %33 = tail call i32 (ptr, ...) @printf(ptr noundef nonnull dereferenceable(1) @.str, i32 noundef %30)
  br label %Gia_ObjName.exit

Gia_ObjName.exit:                                 ; preds = %.Gia_ObjName.exit_crit_edge, %26, %32
  %.pre-phi = phi i64 [ %.pre, %.Gia_ObjName.exit_crit_edge ], [ %28, %26 ], [ %28, %32 ]
  %.val33 = load ptr, ptr %9, align 8, !tbaa !113, !nonnull !114, !noundef !114
  %34 = getelementptr i8, ptr %.val33, i64 8
  %.val.i = load ptr, ptr %34, align 8, !tbaa !76
  %35 = getelementptr inbounds nuw ptr, ptr %.val.i, i64 %.pre-phi
  %36 = load ptr, ptr %35, align 8, !tbaa !90
  %37 = getelementptr inbounds nuw i8, ptr %36, i64 2
  %38 = tail call i32 (ptr, ...) @printf(ptr noundef nonnull dereferenceable(1) @.str.1, ptr noundef nonnull %37)
  %.not26 = icmp slt i64 %indvars.iv, %11
  br i1 %.not26, label %Gia_ObjName.exit._crit_edge, label %.split.us

Gia_ObjName.exit._crit_edge:                      ; preds = %Gia_ObjName.exit
  %.val.pre = load i32, ptr %5, align 4, !tbaa !30
  br label %40

.split.us:                                        ; preds = %Gia_ObjName.exit, %.critedge29.us
  %39 = tail call i32 (ptr, ...) @printf(ptr noundef nonnull dereferenceable(1) @.str.3)
  br label %.critedge

40:                                               ; preds = %Gia_ObjName.exit._crit_edge, %.lr.ph.split
  %.val = phi i32 [ %.val.pre, %Gia_ObjName.exit._crit_edge ], [ %.val47, %.lr.ph.split ]
  %indvars.iv.next = add nsw i64 %indvars.iv, 1
  %41 = sext i32 %.val to i64
  %42 = icmp slt i64 %indvars.iv.next, %41
  br i1 %42, label %.lr.ph.split, label %.critedge, !llvm.loop !99

.critedge:                                        ; preds = %40, %17, %4, %.split.us
  %.not27 = icmp eq ptr %0, null
  br i1 %.not27, label %.thread, label %43

.thread:                                          ; preds = %.critedge
  %.val14.i36 = load i32, ptr %5, align 4, !tbaa !30
  br label %Supp_ArrayWeight.exit

43:                                               ; preds = %.critedge
  %44 = getelementptr inbounds nuw i8, ptr %0, i64 584
  %45 = load ptr, ptr %44, align 8, !tbaa !100
  %.not.i34 = icmp eq ptr %45, null
  %.val14.i = load i32, ptr %5, align 4, !tbaa !30
  br i1 %.not.i34, label %Supp_ArrayWeight.exit, label %.preheader.i

.preheader.i:                                     ; preds = %43
  %46 = icmp sgt i32 %.val14.i, 0
  br i1 %46, label %.lr.ph.i, label %Supp_ArrayWeight.exit

.lr.ph.i:                                         ; preds = %.preheader.i
  %47 = getelementptr i8, ptr %1, i64 8
  %.val16.i = load ptr, ptr %47, align 8, !tbaa !34
  %48 = getelementptr i8, ptr %45, i64 8
  %.val15.i = load ptr, ptr %48, align 8, !tbaa !34
  %wide.trip.count.i = zext nneg i32 %.val14.i to i64
  br label %49

49:                                               ; preds = %49, %.lr.ph.i
  %indvars.iv.i = phi i64 [ 0, %.lr.ph.i ], [ %indvars.iv.next.i, %49 ]
  %.018.i = phi i32 [ 0, %.lr.ph.i ], [ %55, %49 ]
  %50 = getelementptr inbounds nuw i32, ptr %.val16.i, i64 %indvars.iv.i
  %51 = load i32, ptr %50, align 4, !tbaa !35
  %52 = sext i32 %51 to i64
  %53 = getelementptr inbounds i32, ptr %.val15.i, i64 %52
  %54 = load i32, ptr %53, align 4, !tbaa !35
  %55 = add nsw i32 %54, %.018.i
  %indvars.iv.next.i = add nuw nsw i64 %indvars.iv.i, 1
  %exitcond.not.i = icmp eq i64 %indvars.iv.next.i, %wide.trip.count.i
  br i1 %exitcond.not.i, label %Supp_ArrayWeight.exit, label %49, !llvm.loop !97

Supp_ArrayWeight.exit:                            ; preds = %49, %.thread, %43, %.preheader.i
  %.011.i = phi i32 [ 0, %.preheader.i ], [ %.val14.i, %43 ], [ %.val14.i36, %.thread ], [ %55, %49 ]
  %56 = tail call i32 (ptr, ...) @printf(ptr noundef nonnull dereferenceable(1) @.str.4, i32 noundef %.011.i)
  %putchar = tail call i32 @putchar(i32 10)
  ret void
}